target datalayout = "e-m:e-p270:32:32-p271:32:32-p272:64:64-i64:64-i128:128-f80:128-n8:16:32:64-S128"
target triple = "x86_64-pc-linux-gnu"

%struct.strbuf = type { i64, i64, ptr }
%struct.buffer = type { %struct.strbuf, i64 }

@.str = private unnamed_addr constant [7 x i8] c"http.c\00", align 1
@.str.1 = private unnamed_addr constant [34 x i8] c"seek_buffer only handles SEEK_SET\00", align 1
@.str.2 = private unnamed_addr constant [37 x i8] c"curl seek would be outside of buffer\00", align 1

; Function Attrs: inlinehint nounwind uwtable
define internal i32 @const_error() #5 {
  ret i32 -1
}

; Function Attrs: nounwind uwtable
define dso_local i32 @seek_buffer(ptr noundef %0, i64 noundef %1, i32 noundef %2) #0 {
  %4 = alloca i32, align 4
  %5 = alloca ptr, align 8
  %6 = alloca i64, align 8
  %7 = alloca i32, align 4
  %8 = alloca ptr, align 8
  %9 = alloca i32, align 4
  store ptr %0, ptr %5, align 8, !tbaa !11
  store i64 %1, ptr %6, align 8, !tbaa !9
  store i32 %2, ptr %7, align 4, !tbaa !19
  call void @llvm.lifetime.start.p0(i64 8, ptr %8) #11
  %10 = load ptr, ptr %5, align 8, !tbaa !11
  store ptr %10, ptr %8, align 8, !tbaa !12
  %11 = load i32, ptr %7, align 4, !tbaa !19
  %12 = icmp ne i32 %11, 0
  br i1 %12, label %13, label %14

13:                                               ; preds = %3
  call void (ptr, i32, ptr, ...) @BUG_fl(ptr noundef @.str, i32 noundef 178, ptr noundef @.str.1) #12
  unreachable

14:                                               ; preds = %3
  %15 = load i64, ptr %6, align 8, !tbaa !9
  %16 = icmp slt i64 %15, 0
  br i1 %16, label %24, label %17

17:                                               ; preds = %14
  %18 = load i64, ptr %6, align 8, !tbaa !9
  %19 = load ptr, ptr %8, align 8, !tbaa !12
  %20 = getelementptr inbounds nuw %struct.buffer, ptr %19, i32 0, i32 0
  %21 = getelementptr inbounds nuw %struct.strbuf, ptr %20, i32 0, i32 1
  %22 = load i64, ptr %21, align 8, !tbaa !14
  %23 = icmp uge i64 %18, %22
  br i1 %23, label %24, label %27

24:                                               ; preds = %17, %14
  %25 = call i32 (ptr, ...) @error(ptr noundef @.str.2)
  %26 = call i32 @const_error()
  store i32 1, ptr %4, align 4
  store i32 1, ptr %9, align 4
  br label %31

27:                                               ; preds = %17
  %28 = load i64, ptr %6, align 8, !tbaa !9
  %29 = load ptr, ptr %8, align 8, !tbaa !12
  %30 = getelementptr inbounds nuw %struct.buffer, ptr %29, i32 0, i32 1
  store i64 %28, ptr %30, align 8, !tbaa !17
  store i32 0, ptr %4, align 4
  store i32 1, ptr %9, align 4
  br label %31

31:                                               ; preds = %27, %24
  call void @llvm.lifetime.end.p0(i64 8, ptr %8) #11
  %32 = load i32, ptr %4, align 4
  ret i32 %32
}