; Function Attrs: nounwind uwtable
define dso_local range(i32 0, 2) i32 @seek_buffer(ptr noundef captures(none) %0, i64 noundef %1, i32 noundef %2) local_unnamed_addr #3 {
  %.not = icmp eq i32 %2, 0
  br i1 %.not, label %5, label %4

4:                                                ; preds = %3
  tail call void (ptr, i32, ptr, ...) @BUG_fl(ptr noundef nonnull @.str, i32 noundef 178, ptr noundef nonnull @.str.1) #21
  unreachable

5:                                                ; preds = %3
  %6 = icmp slt i64 %1, 0
  br i1 %6, label %10, label %7

7:                                                ; preds = %5
  %8 = getelementptr inbounds nuw i8, ptr %0, i64 8
  %9 = load i64, ptr %8, align 8, !tbaa !4
  %.not8 = icmp ult i64 %1, %9
  br i1 %.not8, label %12, label %10

10:                                               ; preds = %7, %5
  %11 = tail call i32 (ptr, ...) @error(ptr noundef nonnull @.str.2) #22
  br label %14

12:                                               ; preds = %7
  %13 = getelementptr inbounds nuw i8, ptr %0, i64 24
  store i64 %1, ptr %13, align 8, !tbaa !12
  br label %14

14:                                               ; preds = %12, %10
  %.0 = phi i32 [ 1, %10 ], [ 0, %12 ]
  ret i32 %.0
}